target datalayout = "e-m:e-p270:32:32-p271:32:32-p272:64:64-i64:64-i128:128-f80:128-n8:16:32:64-S128"
target triple = "x86_64-pc-linux-gnu"

%struct.select_args = type { i64, i64, i64, ptr, [4 x %struct.rb_fdset_t] }
%struct.rb_fdset_t = type { i32, ptr }

; Function Attrs: nounwind sspstrong uwtable
define internal i64 @select_end(i64 noundef %0) #0 {
  %2 = alloca i64, align 8
  %3 = alloca ptr, align 8
  %4 = alloca i32, align 4
  store i64 %0, ptr %2, align 8, !tbaa !32
  call void @llvm.lifetime.start.p0(i64 8, ptr %3) #28
  %5 = load i64, ptr %2, align 8, !tbaa !32
  %6 = inttoptr i64 %5 to ptr
  store ptr %6, ptr %3, align 8, !tbaa !339
  call void @llvm.lifetime.start.p0(i64 4, ptr %4) #28
  store i32 0, ptr %4, align 4, !tbaa !13
  br label %7

7:                                                ; preds = %16, %1
  %8 = load i32, ptr %4, align 4, !tbaa !13
  %9 = icmp slt i32 %8, 4
  br i1 %9, label %10, label %19

10:                                               ; preds = %7
  %11 = load ptr, ptr %3, align 8, !tbaa !339
  %12 = getelementptr inbounds nuw %struct.select_args, ptr %11, i32 0, i32 4
  %13 = load i32, ptr %4, align 4, !tbaa !13
  %14 = sext i32 %13 to i64
  %15 = getelementptr [4 x %struct.rb_fdset_t], ptr %12, i64 0, i64 %14
  call void @rb_fd_term(ptr noundef %15)
  br label %16

16:                                               ; preds = %10
  %17 = load i32, ptr %4, align 4, !tbaa !13
  %18 = add i32 %17, 1
  store i32 %18, ptr %4, align 4, !tbaa !13
  br label %7, !llvm.loop !344

19:                                               ; preds = %7
  call void @llvm.lifetime.end.p0(i64 4, ptr %4) #28
  call void @llvm.lifetime.end.p0(i64 8, ptr %3) #28
  ret i64 4
}