; Function Attrs: nounwind sspstrong uwtable
define internal noundef i64 @select_end(i64 noundef %0) #0 {
  %2 = inttoptr i64 %0 to ptr
  %3 = getelementptr inbounds nuw i8, ptr %2, i64 32
  br label %4

4:                                                ; preds = %1, %4
  %indvars.iv = phi i64 [ 0, %1 ], [ %indvars.iv.next, %4 ]
  %5 = getelementptr [4 x %struct.rb_fdset_t], ptr %3, i64 0, i64 %indvars.iv
  tail call void @rb_fd_term(ptr noundef %5) #28
  %indvars.iv.next = add nuw nsw i64 %indvars.iv, 1
  %exitcond.not = icmp eq i64 %indvars.iv.next, 4
  br i1 %exitcond.not, label %6, label %4, !llvm.loop !432

6:                                                ; preds = %4
  ret i64 4
}